target datalayout = "e-m:e-p270:32:32-p271:32:32-p272:64:64-i64:64-i128:128-f80:128-n8:16:32:64-S128"
target triple = "x86_64-pc-linux-gnu"

%struct.asn1_string_st = type { i32, i32, ptr, i64 }

; Function Attrs: nounwind uwtable
define i32 @ASN1_STRING_copy(ptr noundef %0, ptr noundef %1) #0 {
  %3 = alloca i32, align 4
  %4 = alloca ptr, align 8
  %5 = alloca ptr, align 8
  store ptr %0, ptr %4, align 8, !tbaa !29
  store ptr %1, ptr %5, align 8, !tbaa !29
  %6 = load ptr, ptr %5, align 8, !tbaa !29
  %7 = icmp eq ptr %6, null
  br i1 %7, label %8, label %9

8:                                                ; preds = %2
  store i32 0, ptr %3, align 4
  br label %38

9:                                                ; preds = %2
  %10 = load ptr, ptr %5, align 8, !tbaa !29
  %11 = getelementptr inbounds nuw %struct.asn1_string_st, ptr %10, i32 0, i32 1
  %12 = load i32, ptr %11, align 4, !tbaa !33
  %13 = load ptr, ptr %4, align 8, !tbaa !29
  %14 = getelementptr inbounds nuw %struct.asn1_string_st, ptr %13, i32 0, i32 1
  store i32 %12, ptr %14, align 4, !tbaa !33
  %15 = load ptr, ptr %4, align 8, !tbaa !29
  %16 = load ptr, ptr %5, align 8, !tbaa !29
  %17 = getelementptr inbounds nuw %struct.asn1_string_st, ptr %16, i32 0, i32 2
  %18 = load ptr, ptr %17, align 8, !tbaa !34
  %19 = load ptr, ptr %5, align 8, !tbaa !29
  %20 = getelementptr inbounds nuw %struct.asn1_string_st, ptr %19, i32 0, i32 0
  %21 = load i32, ptr %20, align 8, !tbaa !35
  %22 = call i32 @ASN1_STRING_set(ptr noundef %15, ptr noundef %18, i32 noundef %21)
  %23 = icmp ne i32 %22, 0
  br i1 %23, label %25, label %24

24:                                               ; preds = %9
  store i32 0, ptr %3, align 4
  br label %38

25:                                               ; preds = %9
  %26 = load ptr, ptr %4, align 8, !tbaa !29
  %27 = getelementptr inbounds nuw %struct.asn1_string_st, ptr %26, i32 0, i32 3
  %28 = load i64, ptr %27, align 8, !tbaa !31
  %29 = and i64 %28, 128
  store i64 %29, ptr %27, align 8, !tbaa !31
  %30 = load ptr, ptr %5, align 8, !tbaa !29
  %31 = getelementptr inbounds nuw %struct.asn1_string_st, ptr %30, i32 0, i32 3
  %32 = load i64, ptr %31, align 8, !tbaa !31
  %33 = and i64 %32, -129
  %34 = load ptr, ptr %4, align 8, !tbaa !29
  %35 = getelementptr inbounds nuw %struct.asn1_string_st, ptr %34, i32 0, i32 3
  %36 = load i64, ptr %35, align 8, !tbaa !31
  %37 = or i64 %36, %33
  store i64 %37, ptr %35, align 8, !tbaa !31
  store i32 1, ptr %3, align 4
  br label %38

38:                                               ; preds = %25, %24, %8
  %39 = load i32, ptr %3, align 4
  ret i32 %39
}