; Function Attrs: nounwind uwtable
define range(i32 0, 2) i32 @ASN1_STRING_copy(ptr noundef captures(none) %0, ptr noundef readonly captures(address_is_null) %1) local_unnamed_addr #1 {
  %3 = icmp eq ptr %1, null
  br i1 %3, label %20, label %4

4:                                                ; preds = %2
  %5 = getelementptr inbounds nuw i8, ptr %1, i64 4
  %6 = load i32, ptr %5, align 4, !tbaa !24
  %7 = getelementptr inbounds nuw i8, ptr %0, i64 4
  store i32 %6, ptr %7, align 4, !tbaa !24
  %8 = getelementptr inbounds nuw i8, ptr %1, i64 8
  %9 = load ptr, ptr %8, align 8, !tbaa !25
  %10 = load i32, ptr %1, align 8, !tbaa !26
  %11 = tail call i32 @ASN1_STRING_set(ptr noundef %0, ptr noundef %9, i32 noundef %10)
  %.not = icmp eq i32 %11, 0
  br i1 %.not, label %20, label %12

12:                                               ; preds = %4
  %13 = getelementptr inbounds nuw i8, ptr %0, i64 16
  %14 = load i64, ptr %13, align 8, !tbaa !22
  %15 = and i64 %14, 128
  store i64 %15, ptr %13, align 8, !tbaa !22
  %16 = getelementptr inbounds nuw i8, ptr %1, i64 16
  %17 = load i64, ptr %16, align 8, !tbaa !22
  %18 = and i64 %17, -129
  %19 = or disjoint i64 %18, %15
  store i64 %19, ptr %13, align 8, !tbaa !22
  br label %20

20:                                               ; preds = %4, %2, %12
  %.0 = phi i32 [ 1, %12 ], [ 0, %2 ], [ 0, %4 ]
  ret i32 %.0
}